target datalayout = "e-m:e-p270:32:32-p271:32:32-p272:64:64-i64:64-i128:128-f80:128-n8:16:32:64-S128"
target triple = "x86_64-pc-linux-gnu"

%struct.UEnumeration = type { ptr, ptr, ptr, ptr, ptr, ptr, ptr }
%struct.UKeywordsContext = type { ptr, ptr }

; Function Attrs: mustprogress nounwind uwtable
define internal noundef i32 @_ZL21uloc_kw_countKeywordsP12UEnumerationP10UErrorCode(ptr noundef %0, ptr noundef %1) #0 {
  %3 = alloca ptr, align 8
  %4 = alloca ptr, align 8
  %5 = alloca ptr, align 8
  %6 = alloca i32, align 4
  store ptr %0, ptr %3, align 8, !tbaa !107
  store ptr %1, ptr %4, align 8, !tbaa !22
  call void @llvm.lifetime.start.p0(i64 8, ptr %5) #11
  %7 = load ptr, ptr %3, align 8, !tbaa !107
  %8 = getelementptr inbounds nuw %struct.UEnumeration, ptr %7, i32 0, i32 1
  %9 = load ptr, ptr %8, align 8, !tbaa !99
  %10 = getelementptr inbounds nuw %struct.UKeywordsContext, ptr %9, i32 0, i32 0
  %11 = load ptr, ptr %10, align 8, !tbaa !96
  store ptr %11, ptr %5, align 8, !tbaa !17
  call void @llvm.lifetime.start.p0(i64 4, ptr %6) #11
  store i32 0, ptr %6, align 4, !tbaa !14
  br label %12

12:                                               ; preds = %16, %2
  %13 = load ptr, ptr %5, align 8, !tbaa !17
  %14 = load i8, ptr %13, align 1, !tbaa !25
  %15 = icmp ne i8 %14, 0
  br i1 %15, label %16, label %24

16:                                               ; preds = %12
  %17 = load i32, ptr %6, align 4, !tbaa !14
  %18 = add nsw i32 %17, 1
  store i32 %18, ptr %6, align 4, !tbaa !14
  %19 = load ptr, ptr %5, align 8, !tbaa !17
  %20 = call i64 @strlen(ptr noundef %19) #14
  %21 = add i64 %20, 1
  %22 = load ptr, ptr %5, align 8, !tbaa !17
  %23 = getelementptr inbounds nuw i8, ptr %22, i64 %21
  store ptr %23, ptr %5, align 8, !tbaa !17
  br label %12, !llvm.loop !158

24:                                               ; preds = %12
  %25 = load i32, ptr %6, align 4, !tbaa !14
  call void @llvm.lifetime.end.p0(i64 4, ptr %6) #11
  call void @llvm.lifetime.end.p0(i64 8, ptr %5) #11
  ret i32 %25
}