; Function Attrs: mustprogress nofree nounwind willreturn memory(read, inaccessiblemem: none) uwtable
define internal noundef i32 @_ZL21uloc_kw_countKeywordsP12UEnumerationP10UErrorCode(ptr noundef readonly captures(none) %0, ptr readnone captures(none) %1) #13 {
  %3 = getelementptr inbounds nuw i8, ptr %0, i64 8
  %4 = load ptr, ptr %3, align 8, !tbaa !90
  %5 = load ptr, ptr %4, align 8, !tbaa !87
  %6 = load i8, ptr %5, align 1, !tbaa !20
  %.not6 = icmp eq i8 %6, 0
  br i1 %.not6, label %._crit_edge, label %.lr.ph

.lr.ph:                                           ; preds = %2, %.lr.ph
  %.08 = phi i32 [ %7, %.lr.ph ], [ 0, %2 ]
  %.057 = phi ptr [ %10, %.lr.ph ], [ %5, %2 ]
  %7 = add nuw nsw i32 %.08, 1
  %8 = tail call i64 @strlen(ptr noundef nonnull dereferenceable(1) %.057) #23
  %9 = getelementptr i8, ptr %.057, i64 %8
  %10 = getelementptr i8, ptr %9, i64 1
  %11 = load i8, ptr %10, align 1, !tbaa !20
  %.not = icmp eq i8 %11, 0
  br i1 %.not, label %._crit_edge, label %.lr.ph, !llvm.loop !152

._crit_edge:                                      ; preds = %.lr.ph, %2
  %.0.lcssa = phi i32 [ 0, %2 ], [ %7, %.lr.ph ]
  ret i32 %.0.lcssa
}